target datalayout = "e-m:e-p270:32:32-p271:32:32-p272:64:64-i64:64-i128:128-f80:128-n8:16:32:64-S128"
target triple = "x86_64-pc-linux-gnu"

%"class.llvm::SmallVectorBase" = type { ptr, i32, i32 }
%"struct.llvm::MBBSectionID" = type { i32, i32 }
%"class.std::optional" = type { %"struct.std::_Optional_base" }
%"struct.std::_Optional_base" = type { %"struct.std::_Optional_payload" }
%"struct.std::_Optional_payload" = type { %"struct.std::_Optional_payload_base.base", [7 x i8] }
%"struct.std::_Optional_payload_base.base" = type <{ %"union.std::_Optional_payload_base<unsigned long>::_Storage", i8 }>
%"union.std::_Optional_payload_base<unsigned long>::_Storage" = type { i64 }
%"class.llvm::MachineBasicBlock" = type { %"class.llvm::ilist_node_with_parent", ptr, i32, i32, ptr, %"class.llvm::iplist", %"class.llvm::SmallVector.4", %"class.llvm::SmallVector.9", %"class.std::vector", %"class.std::optional", %"class.std::vector.11", %"struct.llvm::Align", i32, i8, i8, ptr, i8, i8, i8, i8, i8, [3 x i8], %"class.std::optional.16", %"struct.llvm::MBBSectionID", i8, i8, i8, ptr, ptr, ptr }
%"class.llvm::ilist_node_with_parent" = type { %"class.llvm::ilist_node" }
%"class.llvm::ilist_node" = type { %"class.llvm::ilist_node_impl" }
%"class.llvm::ilist_node_impl" = type { %"class.llvm::ilist_node_base" }
%"class.llvm::ilist_node_base" = type { %"class.llvm::ilist_detail::node_base_prevnext" }
%"class.llvm::ilist_detail::node_base_prevnext" = type { ptr, ptr }
%"class.llvm::iplist" = type { %"class.llvm::iplist_impl" }
%"class.llvm::iplist_impl" = type { %"struct.llvm::ilist_traits", %"class.llvm::simple_ilist" }
%"struct.llvm::ilist_traits" = type { ptr }
%"class.llvm::simple_ilist" = type { %"class.llvm::ilist_sentinel" }
%"class.llvm::ilist_sentinel" = type { %"class.llvm::ilist_node_impl.0" }
%"class.llvm::ilist_node_impl.0" = type { %"class.llvm::ilist_node_base.1" }
%"class.llvm::ilist_node_base.1" = type { %"class.llvm::ilist_detail::node_base_prevnext.2" }
%"class.llvm::ilist_detail::node_base_prevnext.2" = type { %"class.llvm::PointerIntPair", ptr }
%"class.llvm::PointerIntPair" = type { %"struct.llvm::detail::PunnedPointer" }
%"struct.llvm::detail::PunnedPointer" = type { [8 x i8] }
%"class.llvm::SmallVector.4" = type { %"class.llvm::SmallVectorImpl.5", %"struct.llvm::SmallVectorStorage.8" }
%"class.llvm::SmallVectorImpl.5" = type { %"class.llvm::SmallVectorTemplateBase.6" }
%"class.llvm::SmallVectorTemplateBase.6" = type { %"class.llvm::SmallVectorTemplateCommon.7" }
%"class.llvm::SmallVectorTemplateCommon.7" = type { %"class.llvm::SmallVectorBase" }
%"struct.llvm::SmallVectorStorage.8" = type { [32 x i8] }
%"class.llvm::SmallVector.9" = type { %"class.llvm::SmallVectorImpl.5", %"struct.llvm::SmallVectorStorage.10" }
%"struct.llvm::SmallVectorStorage.10" = type { [16 x i8] }
%"class.std::vector" = type { %"struct.std::_Vector_base" }
%"struct.std::_Vector_base" = type { %"struct.std::_Vector_base<llvm::BranchProbability, std::allocator<llvm::BranchProbability>>::_Vector_impl" }
%"struct.std::_Vector_base<llvm::BranchProbability, std::allocator<llvm::BranchProbability>>::_Vector_impl" = type { %"struct.std::_Vector_base<llvm::BranchProbability, std::allocator<llvm::BranchProbability>>::_Vector_impl_data" }
%"struct.std::_Vector_base<llvm::BranchProbability, std::allocator<llvm::BranchProbability>>::_Vector_impl_data" = type { ptr, ptr, ptr }
%"class.std::vector.11" = type { %"struct.std::_Vector_base.12" }
%"struct.std::_Vector_base.12" = type { %"struct.std::_Vector_base<llvm::MachineBasicBlock::RegisterMaskPair, std::allocator<llvm::MachineBasicBlock::RegisterMaskPair>>::_Vector_impl" }
%"struct.std::_Vector_base<llvm::MachineBasicBlock::RegisterMaskPair, std::allocator<llvm::MachineBasicBlock::RegisterMaskPair>>::_Vector_impl" = type { %"struct.std::_Vector_base<llvm::MachineBasicBlock::RegisterMaskPair, std::allocator<llvm::MachineBasicBlock::RegisterMaskPair>>::_Vector_impl_data" }
%"struct.std::_Vector_base<llvm::MachineBasicBlock::RegisterMaskPair, std::allocator<llvm::MachineBasicBlock::RegisterMaskPair>>::_Vector_impl_data" = type { ptr, ptr, ptr }
%"struct.llvm::Align" = type { i8 }
%"class.std::optional.16" = type { %"struct.std::_Optional_base.17" }
%"struct.std::_Optional_base.17" = type { %"struct.std::_Optional_payload.19" }
%"struct.std::_Optional_payload.19" = type { %"struct.std::_Optional_payload_base.base.21", [3 x i8] }
%"struct.std::_Optional_payload_base.base.21" = type <{ %"union.std::_Optional_payload_base<llvm::UniqueBBID>::_Storage", i8 }>
%"union.std::_Optional_payload_base<llvm::UniqueBBID>::_Storage" = type { %"struct.llvm::UniqueBBID" }
%"struct.llvm::UniqueBBID" = type { i32, i32 }
%"class.llvm::Value" = type { i8, i8, i16, i32, ptr, ptr }

; Function Attrs: mustprogress nounwind uwtable
define linkonce_odr hidden noundef zeroext i1 @_ZNK4llvm5Value7hasNameEv(ptr noundef nonnull align 8 dereferenceable(24) %0) #1 comdat align 2 {
  %2 = alloca ptr, align 8
  store ptr %0, ptr %2, align 8
  %3 = load ptr, ptr %2, align 8
  %4 = getelementptr inbounds nuw %"class.llvm::Value", ptr %3, i32 0, i32 3
  %5 = load i32, ptr %4, align 4
  %6 = lshr i32 %5, 28
  %7 = and i32 %6, 1
  %8 = icmp ne i32 %7, 0
  ret i1 %8
}

; Function Attrs: mustprogress nounwind uwtable
define linkonce_odr hidden noundef ptr @_ZNK4llvm17MachineBasicBlock13getBasicBlockEv(ptr noundef nonnull align 8 dereferenceable(288) %0) #1 comdat align 2 {
  %2 = alloca ptr, align 8
  store ptr %0, ptr %2, align 8
  %3 = load ptr, ptr %2, align 8
  %4 = getelementptr inbounds nuw %"class.llvm::MachineBasicBlock", ptr %3, i32 0, i32 1
  %5 = load ptr, ptr %4, align 8
  ret ptr %5
}

; Function Attrs: mustprogress nounwind uwtable
define dso_local noundef zeroext i1 @_ZNK4llvm17MachineBasicBlock7hasNameEv(ptr noundef nonnull align 8 dereferenceable(288) %0) #1 align 2 {
  %2 = alloca i1, align 1
  %3 = alloca ptr, align 8
  %4 = alloca ptr, align 8
  store ptr %0, ptr %3, align 8
  %5 = load ptr, ptr %3, align 8
  %6 = call noundef ptr @_ZNK4llvm17MachineBasicBlock13getBasicBlockEv(ptr noundef nonnull align 8 dereferenceable(288) %5)
  store ptr %6, ptr %4, align 8
  %7 = load ptr, ptr %4, align 8
  %8 = icmp ne ptr %7, null
  br i1 %8, label %9, label %12

9:                                                ; preds = %1
  %10 = load ptr, ptr %4, align 8
  %11 = call noundef zeroext i1 @_ZNK4llvm5Value7hasNameEv(ptr noundef nonnull align 8 dereferenceable(24) %10)
  store i1 %11, ptr %2, align 1
  br label %13

12:                                               ; preds = %1
  store i1 false, ptr %2, align 1
  br label %13

13:                                               ; preds = %12, %9
  %14 = load i1, ptr %2, align 1
  ret i1 %14
}