; Function Attrs: mustprogress nofree norecurse nosync nounwind willreturn memory(read, inaccessiblemem: none) uwtable
define dso_local noundef zeroext i1 @_ZNK4llvm17MachineBasicBlock7hasNameEv(ptr noundef nonnull readonly align 8 captures(none) dereferenceable(288) %0) local_unnamed_addr #8 align 2 {
  %2 = getelementptr inbounds nuw i8, ptr %0, i64 16
  %3 = load ptr, ptr %2, align 8
  %.not = icmp eq ptr %3, null
  br i1 %.not, label %9, label %4

4:                                                ; preds = %1
  %5 = getelementptr inbounds nuw i8, ptr %3, i64 4
  %6 = load i32, ptr %5, align 4
  %7 = and i32 %6, 268435456
  %8 = icmp ne i32 %7, 0
  br label %9

9:                                                ; preds = %1, %4
  %.0 = phi i1 [ %8, %4 ], [ false, %1 ]
  ret i1 %.0
}